target datalayout = "e-m:e-p270:32:32-p271:32:32-p272:64:64-i64:64-i128:128-f80:128-n8:16:32:64-S128"
target triple = "x86_64-pc-linux-gnu"

%class.ZServiceabilityCounters = type { [8 x i8], %class.ZGenerationCounters, %class.ZGenerationCounters, %class.HSpaceCounters, %class.HSpaceCounters, %class.CollectorCounters, %class.CollectorCounters }
%class.ZGenerationCounters = type { %class.GenerationCounters }
%class.GenerationCounters = type { ptr, ptr, ptr, ptr }
%class.HSpaceCounters = type { ptr, ptr, ptr }
%class.CollectorCounters = type { ptr, ptr, ptr, ptr, ptr }
%struct.ZMemoryUsageInfo = type { i64, i64, i64, i64 }
%class.PerfData = type { ptr, ptr, i32, i32, i8, i32, ptr, ptr }

@UsePerfData = external global i8, align 1
@_ZN5ZHeap5_heapE = external global ptr, align 8

; Function Attrs: mustprogress nounwind uwtable
define linkonce_odr hidden void @_ZN16PerfLongVariable9set_valueEl(ptr noundef nonnull align 8 dereferenceable(56) %0, i64 noundef %1) #1 comdat align 2 {
  %3 = alloca ptr, align 8
  %4 = alloca i64, align 8
  store ptr %0, ptr %3, align 8
  store i64 %1, ptr %4, align 8
  %5 = load ptr, ptr %3, align 8
  %6 = load i64, ptr %4, align 8
  %7 = getelementptr inbounds %class.PerfData, ptr %5, i32 0, i32 7
  %8 = load ptr, ptr %7, align 8
  store i64 %6, ptr %8, align 8
  ret void
}

; Function Attrs: mustprogress nounwind uwtable
define linkonce_odr hidden noundef i64 @_Z4MIN2ImET_S0_S0_(i64 noundef %0, i64 noundef %1) #1 comdat {
  %3 = alloca i64, align 8
  %4 = alloca i64, align 8
  store i64 %0, ptr %3, align 8
  store i64 %1, ptr %4, align 8
  %5 = load i64, ptr %3, align 8
  %6 = load i64, ptr %4, align 8
  %7 = icmp ult i64 %5, %6
  br i1 %7, label %8, label %10

8:                                                ; preds = %2
  %9 = load i64, ptr %3, align 8
  br label %12

10:                                               ; preds = %2
  %11 = load i64, ptr %4, align 8
  br label %12

12:                                               ; preds = %10, %8
  %13 = phi i64 [ %9, %8 ], [ %11, %10 ]
  ret i64 %13
}

; Function Attrs: mustprogress nounwind uwtable
define linkonce_odr hidden noundef ptr @_ZN5ZHeap4heapEv() #1 comdat align 2 {
  %1 = load ptr, ptr @_ZN5ZHeap5_heapE, align 8
  ret ptr %1
}

; Function Attrs: mustprogress nounwind uwtable
define linkonce_odr hidden void @_ZN19ZGenerationCounters15update_capacityEm(ptr noundef nonnull align 8 dereferenceable(32) %0, i64 noundef %1) #1 comdat align 2 {
  %3 = alloca ptr, align 8
  %4 = alloca i64, align 8
  store ptr %0, ptr %3, align 8
  store i64 %1, ptr %4, align 8
  %5 = load ptr, ptr %3, align 8
  %6 = getelementptr inbounds %class.GenerationCounters, ptr %5, i32 0, i32 1
  %7 = load ptr, ptr %6, align 8
  %8 = load i64, ptr %4, align 8
  call void @_ZN16PerfLongVariable9set_valueEl(ptr noundef nonnull align 8 dereferenceable(56) %7, i64 noundef %8)
  ret void
}

; Function Attrs: mustprogress nounwind uwtable
define internal void @_ZL25compute_memory_usage_infov(ptr dead_on_unwind noalias writable sret(%struct.ZMemoryUsageInfo) align 8 %0) #1 {
  %2 = alloca i64, align 8
  %3 = alloca i64, align 8
  %4 = alloca i64, align 8
  %5 = call noundef ptr @_ZN5ZHeap4heapEv()
  %6 = call noundef i64 @_ZNK5ZHeap8capacityEv(ptr noundef nonnull align 64 dereferenceable(15937) %5)
  store i64 %6, ptr %2, align 8
  %7 = call noundef ptr @_ZN5ZHeap4heapEv()
  %8 = call noundef i64 @_ZNK5ZHeap8used_oldEv(ptr noundef nonnull align 64 dereferenceable(15937) %7)
  store i64 %8, ptr %3, align 8
  %9 = call noundef ptr @_ZN5ZHeap4heapEv()
  %10 = call noundef i64 @_ZNK5ZHeap10used_youngEv(ptr noundef nonnull align 64 dereferenceable(15937) %9)
  store i64 %10, ptr %4, align 8
  %11 = load i64, ptr %3, align 8
  %12 = load i64, ptr %2, align 8
  %13 = call noundef i64 @_Z4MIN2ImET_S0_S0_(i64 noundef %11, i64 noundef %12)
  %14 = getelementptr inbounds %struct.ZMemoryUsageInfo, ptr %0, i32 0, i32 2
  store i64 %13, ptr %14, align 8
  %15 = getelementptr inbounds %struct.ZMemoryUsageInfo, ptr %0, i32 0, i32 2
  %16 = load i64, ptr %15, align 8
  %17 = getelementptr inbounds %struct.ZMemoryUsageInfo, ptr %0, i32 0, i32 3
  store i64 %16, ptr %17, align 8
  %18 = load i64, ptr %2, align 8
  %19 = getelementptr inbounds %struct.ZMemoryUsageInfo, ptr %0, i32 0, i32 3
  %20 = load i64, ptr %19, align 8
  %21 = sub i64 %18, %20
  %22 = getelementptr inbounds %struct.ZMemoryUsageInfo, ptr %0, i32 0, i32 1
  store i64 %21, ptr %22, align 8
  %23 = load i64, ptr %4, align 8
  %24 = getelementptr inbounds %struct.ZMemoryUsageInfo, ptr %0, i32 0, i32 1
  %25 = load i64, ptr %24, align 8
  %26 = call noundef i64 @_Z4MIN2ImET_S0_S0_(i64 noundef %23, i64 noundef %25)
  %27 = getelementptr inbounds %struct.ZMemoryUsageInfo, ptr %0, i32 0, i32 0
  store i64 %26, ptr %27, align 8
  ret void
}

; Function Attrs: mustprogress nounwind uwtable
define hidden void @_ZN23ZServiceabilityCounters12update_sizesEv(ptr noundef nonnull align 8 dereferenceable(200) %0) #1 align 2 {
  %2 = alloca ptr, align 8
  %3 = alloca %struct.ZMemoryUsageInfo, align 8
  store ptr %0, ptr %2, align 8
  %4 = load ptr, ptr %2, align 8
  %5 = load i8, ptr @UsePerfData, align 1
  %6 = trunc i8 %5 to i1
  br i1 %6, label %7, label %26

7:                                                ; preds = %1
  call void @_ZL25compute_memory_usage_infov(ptr dead_on_unwind writable sret(%struct.ZMemoryUsageInfo) align 8 %3)
  %8 = getelementptr inbounds %class.ZServiceabilityCounters, ptr %4, i32 0, i32 1
  %9 = getelementptr inbounds %struct.ZMemoryUsageInfo, ptr %3, i32 0, i32 1
  %10 = load i64, ptr %9, align 8
  call void @_ZN19ZGenerationCounters15update_capacityEm(ptr noundef nonnull align 8 dereferenceable(32) %8, i64 noundef %10)
  %11 = getelementptr inbounds %class.ZServiceabilityCounters, ptr %4, i32 0, i32 2
  %12 = getelementptr inbounds %struct.ZMemoryUsageInfo, ptr %3, i32 0, i32 3
  %13 = load i64, ptr %12, align 8
  call void @_ZN19ZGenerationCounters15update_capacityEm(ptr noundef nonnull align 8 dereferenceable(32) %11, i64 noundef %13)
  %14 = getelementptr inbounds %class.ZServiceabilityCounters, ptr %4, i32 0, i32 3
  %15 = getelementptr inbounds %struct.ZMemoryUsageInfo, ptr %3, i32 0, i32 1
  %16 = load i64, ptr %15, align 8
  call void @_ZN14HSpaceCounters15update_capacityEm(ptr noundef nonnull align 8 dereferenceable(24) %14, i64 noundef %16)
  %17 = getelementptr inbounds %class.ZServiceabilityCounters, ptr %4, i32 0, i32 3
  %18 = getelementptr inbounds %struct.ZMemoryUsageInfo, ptr %3, i32 0, i32 0
  %19 = load i64, ptr %18, align 8
  call void @_ZN14HSpaceCounters11update_usedEm(ptr noundef nonnull align 8 dereferenceable(24) %17, i64 noundef %19)
  %20 = getelementptr inbounds %class.ZServiceabilityCounters, ptr %4, i32 0, i32 4
  %21 = getelementptr inbounds %struct.ZMemoryUsageInfo, ptr %3, i32 0, i32 3
  %22 = load i64, ptr %21, align 8
  call void @_ZN14HSpaceCounters15update_capacityEm(ptr noundef nonnull align 8 dereferenceable(24) %20, i64 noundef %22)
  %23 = getelementptr inbounds %class.ZServiceabilityCounters, ptr %4, i32 0, i32 4
  %24 = getelementptr inbounds %struct.ZMemoryUsageInfo, ptr %3, i32 0, i32 2
  %25 = load i64, ptr %24, align 8
  call void @_ZN14HSpaceCounters11update_usedEm(ptr noundef nonnull align 8 dereferenceable(24) %23, i64 noundef %25)
  call void @_ZN17MetaspaceCounters27update_performance_countersEv()
  br label %26

26:                                               ; preds = %7, %1
  ret void
}