; Function Attrs: mustprogress nounwind uwtable
define hidden void @_ZN23ZServiceabilityCounters12update_sizesEv(ptr noundef nonnull align 8 dereferenceable(200) %0) local_unnamed_addr #0 align 2 {
  %2 = load i8, ptr @UsePerfData, align 1
  %3 = trunc i8 %2 to i1
  br i1 %3, label %4, label %24

4:                                                ; preds = %1
  %5 = load ptr, ptr @_ZN5ZHeap5_heapE, align 8, !noalias !6
  %6 = tail call noundef i64 @_ZNK5ZHeap8capacityEv(ptr noundef nonnull align 64 dereferenceable(15937) %5) #9, !noalias !6
  %7 = load ptr, ptr @_ZN5ZHeap5_heapE, align 8, !noalias !6
  %8 = tail call noundef i64 @_ZNK5ZHeap8used_oldEv(ptr noundef nonnull align 64 dereferenceable(15937) %7) #9, !noalias !6
  %9 = load ptr, ptr @_ZN5ZHeap5_heapE, align 8, !noalias !6
  %10 = tail call noundef i64 @_ZNK5ZHeap10used_youngEv(ptr noundef nonnull align 64 dereferenceable(15937) %9) #9, !noalias !6
  %11 = tail call noundef i64 @llvm.umin.i64(i64 %8, i64 %6)
  %12 = sub i64 %6, %11
  %13 = tail call noundef i64 @llvm.umin.i64(i64 %10, i64 %12)
  %14 = getelementptr inbounds i8, ptr %0, i64 16
  %15 = load ptr, ptr %14, align 8
  %16 = getelementptr inbounds i8, ptr %15, i64 40
  %17 = load ptr, ptr %16, align 8
  store i64 %12, ptr %17, align 8
  %18 = getelementptr inbounds i8, ptr %0, i64 48
  %19 = load ptr, ptr %18, align 8
  %20 = getelementptr inbounds i8, ptr %19, i64 40
  %21 = load ptr, ptr %20, align 8
  store i64 %11, ptr %21, align 8
  %22 = getelementptr inbounds i8, ptr %0, i64 72
  tail call void @_ZN14HSpaceCounters15update_capacityEm(ptr noundef nonnull align 8 dereferenceable(24) %22, i64 noundef %12) #9
  tail call void @_ZN14HSpaceCounters11update_usedEm(ptr noundef nonnull align 8 dereferenceable(24) %22, i64 noundef %13) #9
  %23 = getelementptr inbounds i8, ptr %0, i64 96
  tail call void @_ZN14HSpaceCounters15update_capacityEm(ptr noundef nonnull align 8 dereferenceable(24) %23, i64 noundef %11) #9
  tail call void @_ZN14HSpaceCounters11update_usedEm(ptr noundef nonnull align 8 dereferenceable(24) %23, i64 noundef %11) #9
  tail call void @_ZN17MetaspaceCounters27update_performance_countersEv() #9
  br label %24

24:                                               ; preds = %4, %1
  ret void
}